target datalayout = "e-m:e-p270:32:32-p271:32:32-p272:64:64-i64:64-i128:128-f80:128-n8:16:32:64-S128"
target triple = "x86_64-pc-linux-gnu"

%struct._object = type { %union.anon, ptr }
%union.anon = type { i64 }
%struct.anon = type { i32, i32 }

@PyExc_SyntaxError = external global ptr, align 8
@PyExc_ValueError = external global ptr, align 8
@PyExc_UnicodeError = external global ptr, align 8
@.str.9 = private unnamed_addr constant [14 x i8] c"unicode error\00", align 1
@.str.10 = private unnamed_addr constant [12 x i8] c"value error\00", align 1
@.str.11 = private unnamed_addr constant [8 x i8] c"(%s) %U\00", align 1
@.str.12 = private unnamed_addr constant [19 x i8] c"(%s) unknown error\00", align 1

; Function Attrs: alwaysinline nounwind uwtable
define internal i32 @_Py_IsImmortal(ptr noundef %0) #3 {
  %2 = alloca ptr, align 8
  store ptr %0, ptr %2, align 8, !tbaa !4
  %3 = load ptr, ptr %2, align 8, !tbaa !4
  %4 = getelementptr inbounds nuw %struct._object, ptr %3, i32 0, i32 0
  %5 = getelementptr inbounds nuw %struct.anon, ptr %4, i32 0, i32 0
  %6 = load i32, ptr %5, align 8, !tbaa !9
  %7 = icmp slt i32 %6, 0
  %8 = zext i1 %7 to i32
  ret i32 %8
}

; Function Attrs: inlinehint nounwind uwtable
define internal void @Py_XDECREF(ptr noundef %0) #4 {
  %2 = alloca ptr, align 8
  store ptr %0, ptr %2, align 8, !tbaa !4
  %3 = load ptr, ptr %2, align 8, !tbaa !4
  %4 = icmp ne ptr %3, null
  br i1 %4, label %5, label %7

5:                                                ; preds = %1
  %6 = load ptr, ptr %2, align 8, !tbaa !4
  call void @Py_DECREF(ptr noundef %6)
  br label %7

7:                                                ; preds = %5, %1
  ret void
}

; Function Attrs: alwaysinline nounwind uwtable
define internal void @Py_DECREF(ptr noundef %0) #3 {
  %2 = alloca ptr, align 8
  store ptr %0, ptr %2, align 8, !tbaa !4
  %3 = load ptr, ptr %2, align 8, !tbaa !4
  %4 = call i32 @_Py_IsImmortal(ptr noundef %3)
  %5 = icmp ne i32 %4, 0
  br i1 %5, label %6, label %7

6:                                                ; preds = %1
  br label %16

7:                                                ; preds = %1
  %8 = load ptr, ptr %2, align 8, !tbaa !4
  %9 = getelementptr inbounds nuw %struct._object, ptr %8, i32 0, i32 0
  %10 = getelementptr inbounds nuw %struct.anon, ptr %9, i32 0, i32 0
  %11 = load i32, ptr %10, align 8, !tbaa !9
  %12 = add i32 %11, -1
  store i32 %12, ptr %10, align 8, !tbaa !9
  %13 = icmp eq i32 %12, 0
  br i1 %13, label %14, label %16

14:                                               ; preds = %7
  %15 = load ptr, ptr %2, align 8, !tbaa !4
  call void @_Py_Dealloc(ptr noundef %15)
  br label %16

16:                                               ; preds = %6, %14, %7
  ret void
}

; Function Attrs: nounwind uwtable
define hidden i32 @_Pypegen_raise_decode_error(ptr noundef %0) #0 {
  %2 = alloca ptr, align 8
  %3 = alloca ptr, align 8
  %4 = alloca ptr, align 8
  %5 = alloca ptr, align 8
  %6 = alloca ptr, align 8
  %7 = alloca ptr, align 8
  store ptr %0, ptr %2, align 8, !tbaa !10
  call void @llvm.lifetime.start.p0(i64 8, ptr %3) #7
  store ptr null, ptr %3, align 8, !tbaa !11
  %8 = load ptr, ptr @PyExc_UnicodeError, align 8, !tbaa !4
  %9 = call i32 @PyErr_ExceptionMatches(ptr noundef %8)
  %10 = icmp ne i32 %9, 0
  br i1 %10, label %11, label %12

11:                                               ; preds = %1
  store ptr @.str.9, ptr %3, align 8, !tbaa !11
  br label %18

12:                                               ; preds = %1
  %13 = load ptr, ptr @PyExc_ValueError, align 8, !tbaa !4
  %14 = call i32 @PyErr_ExceptionMatches(ptr noundef %13)
  %15 = icmp ne i32 %14, 0
  br i1 %15, label %16, label %17

16:                                               ; preds = %12
  store ptr @.str.10, ptr %3, align 8, !tbaa !11
  br label %17

17:                                               ; preds = %16, %12
  br label %18

18:                                               ; preds = %17, %11
  %19 = load ptr, ptr %3, align 8, !tbaa !11
  %20 = icmp ne ptr %19, null
  br i1 %20, label %21, label %42

21:                                               ; preds = %18
  call void @llvm.lifetime.start.p0(i64 8, ptr %4) #7
  call void @llvm.lifetime.start.p0(i64 8, ptr %5) #7
  call void @llvm.lifetime.start.p0(i64 8, ptr %6) #7
  call void @llvm.lifetime.start.p0(i64 8, ptr %7) #7
  call void @PyErr_Fetch(ptr noundef %4, ptr noundef %5, ptr noundef %6)
  %22 = load ptr, ptr %5, align 8, !tbaa !4
  %23 = call ptr @PyObject_Str(ptr noundef %22)
  store ptr %23, ptr %7, align 8, !tbaa !4
  %24 = load ptr, ptr %7, align 8, !tbaa !4
  %25 = icmp ne ptr %24, null
  br i1 %25, label %26, label %33

26:                                               ; preds = %21
  %27 = load ptr, ptr %2, align 8, !tbaa !10
  %28 = load ptr, ptr @PyExc_SyntaxError, align 8, !tbaa !4
  %29 = load ptr, ptr %3, align 8, !tbaa !11
  %30 = load ptr, ptr %7, align 8, !tbaa !4
  %31 = call ptr (ptr, ptr, i32, ptr, ...) @_PyPegen_raise_error(ptr noundef %27, ptr noundef %28, i32 noundef 0, ptr noundef @.str.11, ptr noundef %29, ptr noundef %30)
  %32 = load ptr, ptr %7, align 8, !tbaa !4
  call void @Py_DECREF(ptr noundef %32)
  br label %38

33:                                               ; preds = %21
  call void @PyErr_Clear()
  %34 = load ptr, ptr %2, align 8, !tbaa !10
  %35 = load ptr, ptr @PyExc_SyntaxError, align 8, !tbaa !4
  %36 = load ptr, ptr %3, align 8, !tbaa !11
  %37 = call ptr (ptr, ptr, i32, ptr, ...) @_PyPegen_raise_error(ptr noundef %34, ptr noundef %35, i32 noundef 0, ptr noundef @.str.12, ptr noundef %36)
  br label %38

38:                                               ; preds = %33, %26
  %39 = load ptr, ptr %4, align 8, !tbaa !4
  call void @Py_XDECREF(ptr noundef %39)
  %40 = load ptr, ptr %5, align 8, !tbaa !4
  call void @Py_XDECREF(ptr noundef %40)
  %41 = load ptr, ptr %6, align 8, !tbaa !4
  call void @Py_XDECREF(ptr noundef %41)
  call void @llvm.lifetime.end.p0(i64 8, ptr %7) #7
  call void @llvm.lifetime.end.p0(i64 8, ptr %6) #7
  call void @llvm.lifetime.end.p0(i64 8, ptr %5) #7
  call void @llvm.lifetime.end.p0(i64 8, ptr %4) #7
  br label %42

42:                                               ; preds = %38, %18
  call void @llvm.lifetime.end.p0(i64 8, ptr %3) #7
  ret i32 -1
}