; Function Attrs: nounwind uwtable
define hidden noundef i32 @_Pypegen_raise_decode_error(ptr noundef %0) local_unnamed_addr #0 {
  %2 = alloca ptr, align 8
  %3 = alloca ptr, align 8
  %4 = alloca ptr, align 8
  %5 = load ptr, ptr @PyExc_UnicodeError, align 8, !tbaa !4
  %6 = tail call i32 @PyErr_ExceptionMatches(ptr noundef %5) #7
  %.not = icmp eq i32 %6, 0
  br i1 %.not, label %7, label %.thread

7:                                                ; preds = %1
  %8 = load ptr, ptr @PyExc_ValueError, align 8, !tbaa !4
  %9 = tail call i32 @PyErr_ExceptionMatches(ptr noundef %8) #7
  %.not9 = icmp eq i32 %9, 0
  br i1 %.not9, label %44, label %.thread

.thread:                                          ; preds = %1, %7
  %.022 = phi ptr [ @.str.10, %7 ], [ @.str.9, %1 ]
  call void @llvm.lifetime.start.p0(i64 8, ptr nonnull %2) #7
  call void @llvm.lifetime.start.p0(i64 8, ptr nonnull %3) #7
  call void @llvm.lifetime.start.p0(i64 8, ptr nonnull %4) #7
  call void @PyErr_Fetch(ptr noundef nonnull %2, ptr noundef nonnull %3, ptr noundef nonnull %4) #7
  %10 = load ptr, ptr %3, align 8, !tbaa !4
  %11 = call ptr @PyObject_Str(ptr noundef %10) #7
  %.not11 = icmp eq ptr %11, null
  br i1 %.not11, label %20, label %12

12:                                               ; preds = %.thread
  %13 = load ptr, ptr @PyExc_SyntaxError, align 8, !tbaa !4
  %14 = call ptr (ptr, ptr, i32, ptr, ...) @_PyPegen_raise_error(ptr noundef %0, ptr noundef %13, i32 noundef 0, ptr noundef nonnull @.str.11, ptr noundef nonnull %.022, ptr noundef nonnull %11)
  %15 = load i32, ptr %11, align 8, !tbaa !9
  %.not.i = icmp sgt i32 %15, -1
  br i1 %.not.i, label %16, label %Py_DECREF.exit

16:                                               ; preds = %12
  %17 = add nsw i32 %15, -1
  store i32 %17, ptr %11, align 8, !tbaa !9
  %18 = icmp eq i32 %17, 0
  br i1 %18, label %19, label %Py_DECREF.exit

19:                                               ; preds = %16
  call void @_Py_Dealloc(ptr noundef nonnull %11) #7
  br label %Py_DECREF.exit

20:                                               ; preds = %.thread
  call void @PyErr_Clear() #7
  %21 = load ptr, ptr @PyExc_SyntaxError, align 8, !tbaa !4
  %22 = call ptr (ptr, ptr, i32, ptr, ...) @_PyPegen_raise_error(ptr noundef %0, ptr noundef %21, i32 noundef 0, ptr noundef nonnull @.str.12, ptr noundef nonnull %.022)
  br label %Py_DECREF.exit

Py_DECREF.exit:                                   ; preds = %19, %16, %12, %20
  %23 = load ptr, ptr %2, align 8, !tbaa !4
  %.not.i13 = icmp eq ptr %23, null
  br i1 %.not.i13, label %Py_XDECREF.exit, label %24

24:                                               ; preds = %Py_DECREF.exit
  %25 = load i32, ptr %23, align 8, !tbaa !9
  %.not.i.i = icmp sgt i32 %25, -1
  br i1 %.not.i.i, label %26, label %Py_XDECREF.exit

26:                                               ; preds = %24
  %27 = add nsw i32 %25, -1
  store i32 %27, ptr %23, align 8, !tbaa !9
  %28 = icmp eq i32 %27, 0
  br i1 %28, label %29, label %Py_XDECREF.exit

29:                                               ; preds = %26
  call void @_Py_Dealloc(ptr noundef nonnull %23) #7
  br label %Py_XDECREF.exit

Py_XDECREF.exit:                                  ; preds = %Py_DECREF.exit, %24, %26, %29
  %30 = load ptr, ptr %3, align 8, !tbaa !4
  %.not.i14 = icmp eq ptr %30, null
  br i1 %.not.i14, label %Py_XDECREF.exit16, label %31

31:                                               ; preds = %Py_XDECREF.exit
  %32 = load i32, ptr %30, align 8, !tbaa !9
  %.not.i.i15 = icmp sgt i32 %32, -1
  br i1 %.not.i.i15, label %33, label %Py_XDECREF.exit16

33:                                               ; preds = %31
  %34 = add nsw i32 %32, -1
  store i32 %34, ptr %30, align 8, !tbaa !9
  %35 = icmp eq i32 %34, 0
  br i1 %35, label %36, label %Py_XDECREF.exit16

36:                                               ; preds = %33
  call void @_Py_Dealloc(ptr noundef nonnull %30) #7
  br label %Py_XDECREF.exit16

Py_XDECREF.exit16:                                ; preds = %Py_XDECREF.exit, %31, %33, %36
  %37 = load ptr, ptr %4, align 8, !tbaa !4
  %.not.i17 = icmp eq ptr %37, null
  br i1 %.not.i17, label %Py_XDECREF.exit19, label %38

38:                                               ; preds = %Py_XDECREF.exit16
  %39 = load i32, ptr %37, align 8, !tbaa !9
  %.not.i.i18 = icmp sgt i32 %39, -1
  br i1 %.not.i.i18, label %40, label %Py_XDECREF.exit19

40:                                               ; preds = %38
  %41 = add nsw i32 %39, -1
  store i32 %41, ptr %37, align 8, !tbaa !9
  %42 = icmp eq i32 %41, 0
  br i1 %42, label %43, label %Py_XDECREF.exit19

43:                                               ; preds = %40
  call void @_Py_Dealloc(ptr noundef nonnull %37) #7
  br label %Py_XDECREF.exit19

Py_XDECREF.exit19:                                ; preds = %Py_XDECREF.exit16, %38, %40, %43
  call void @llvm.lifetime.end.p0(i64 8, ptr nonnull %4) #7
  call void @llvm.lifetime.end.p0(i64 8, ptr nonnull %3) #7
  call void @llvm.lifetime.end.p0(i64 8, ptr nonnull %2) #7
  br label %44

44:                                               ; preds = %Py_XDECREF.exit19, %7
  ret i32 -1
}